target datalayout = "e-m:e-p270:32:32-p271:32:32-p272:64:64-i64:64-i128:128-f80:128-n8:16:32:64-S128"
target triple = "x86_64-pc-linux-gnu"

%struct._N_VectorContent_Serial = type { i64, i32, ptr }
%struct._generic_N_Vector = type { ptr, ptr }

; Function Attrs: nounwind uwtable
define void @N_VDestroy_Serial(ptr noundef %0) #0 {
  %2 = alloca ptr, align 8
  store ptr %0, ptr %2, align 8, !tbaa !7
  %3 = load ptr, ptr %2, align 8, !tbaa !7
  %4 = getelementptr inbounds nuw %struct._generic_N_Vector, ptr %3, i32 0, i32 0
  %5 = load ptr, ptr %4, align 8, !tbaa !46
  %6 = getelementptr inbounds nuw %struct._N_VectorContent_Serial, ptr %5, i32 0, i32 1
  %7 = load i32, ptr %6, align 8, !tbaa !44
  %8 = icmp eq i32 %7, 1
  br i1 %8, label %9, label %19

9:                                                ; preds = %1
  %10 = load ptr, ptr %2, align 8, !tbaa !7
  %11 = getelementptr inbounds nuw %struct._generic_N_Vector, ptr %10, i32 0, i32 0
  %12 = load ptr, ptr %11, align 8, !tbaa !46
  %13 = getelementptr inbounds nuw %struct._N_VectorContent_Serial, ptr %12, i32 0, i32 2
  %14 = load ptr, ptr %13, align 8, !tbaa !45
  call void @free(ptr noundef %14) #6
  %15 = load ptr, ptr %2, align 8, !tbaa !7
  %16 = getelementptr inbounds nuw %struct._generic_N_Vector, ptr %15, i32 0, i32 0
  %17 = load ptr, ptr %16, align 8, !tbaa !46
  %18 = getelementptr inbounds nuw %struct._N_VectorContent_Serial, ptr %17, i32 0, i32 2
  store ptr null, ptr %18, align 8, !tbaa !45
  br label %19

19:                                               ; preds = %9, %1
  %20 = load ptr, ptr %2, align 8, !tbaa !7
  %21 = getelementptr inbounds nuw %struct._generic_N_Vector, ptr %20, i32 0, i32 0
  %22 = load ptr, ptr %21, align 8, !tbaa !46
  call void @free(ptr noundef %22) #6
  %23 = load ptr, ptr %2, align 8, !tbaa !7
  %24 = getelementptr inbounds nuw %struct._generic_N_Vector, ptr %23, i32 0, i32 0
  store ptr null, ptr %24, align 8, !tbaa !46
  %25 = load ptr, ptr %2, align 8, !tbaa !7
  %26 = getelementptr inbounds nuw %struct._generic_N_Vector, ptr %25, i32 0, i32 1
  %27 = load ptr, ptr %26, align 8, !tbaa !48
  call void @free(ptr noundef %27) #6
  %28 = load ptr, ptr %2, align 8, !tbaa !7
  %29 = getelementptr inbounds nuw %struct._generic_N_Vector, ptr %28, i32 0, i32 1
  store ptr null, ptr %29, align 8, !tbaa !48
  %30 = load ptr, ptr %2, align 8, !tbaa !7
  call void @free(ptr noundef %30) #6
  store ptr null, ptr %2, align 8, !tbaa !7
  ret void
}

; Function Attrs: nounwind uwtable
define ptr @N_VNew_Serial(i64 noundef %0) #0 {
  %2 = alloca ptr, align 8
  %3 = alloca i64, align 8
  %4 = alloca ptr, align 8
  %5 = alloca ptr, align 8
  %6 = alloca i32, align 4
  store i64 %0, ptr %3, align 8, !tbaa !3
  call void @llvm.lifetime.start.p0(i64 8, ptr %4) #6
  call void @llvm.lifetime.start.p0(i64 8, ptr %5) #6
  store ptr null, ptr %4, align 8, !tbaa !7
  %7 = load i64, ptr %3, align 8, !tbaa !3
  %8 = call ptr @N_VNewEmpty_Serial(i64 noundef %7)
  store ptr %8, ptr %4, align 8, !tbaa !7
  %9 = load ptr, ptr %4, align 8, !tbaa !7
  %10 = icmp eq ptr %9, null
  br i1 %10, label %11, label %12

11:                                               ; preds = %1
  store ptr null, ptr %2, align 8
  store i32 1, ptr %6, align 4
  br label %35

12:                                               ; preds = %1
  %13 = load i64, ptr %3, align 8, !tbaa !3
  %14 = icmp sgt i64 %13, 0
  br i1 %14, label %15, label %33

15:                                               ; preds = %12
  store ptr null, ptr %5, align 8, !tbaa !49
  %16 = load i64, ptr %3, align 8, !tbaa !3
  %17 = mul i64 %16, 8
  %18 = call noalias ptr @malloc(i64 noundef %17) #7
  store ptr %18, ptr %5, align 8, !tbaa !49
  %19 = load ptr, ptr %5, align 8, !tbaa !49
  %20 = icmp eq ptr %19, null
  br i1 %20, label %21, label %23

21:                                               ; preds = %15
  %22 = load ptr, ptr %4, align 8, !tbaa !7
  call void @N_VDestroy_Serial(ptr noundef %22)
  store ptr null, ptr %2, align 8
  store i32 1, ptr %6, align 4
  br label %35

23:                                               ; preds = %15
  %24 = load ptr, ptr %4, align 8, !tbaa !7
  %25 = getelementptr inbounds nuw %struct._generic_N_Vector, ptr %24, i32 0, i32 0
  %26 = load ptr, ptr %25, align 8, !tbaa !46
  %27 = getelementptr inbounds nuw %struct._N_VectorContent_Serial, ptr %26, i32 0, i32 1
  store i32 1, ptr %27, align 8, !tbaa !44
  %28 = load ptr, ptr %5, align 8, !tbaa !49
  %29 = load ptr, ptr %4, align 8, !tbaa !7
  %30 = getelementptr inbounds nuw %struct._generic_N_Vector, ptr %29, i32 0, i32 0
  %31 = load ptr, ptr %30, align 8, !tbaa !46
  %32 = getelementptr inbounds nuw %struct._N_VectorContent_Serial, ptr %31, i32 0, i32 2
  store ptr %28, ptr %32, align 8, !tbaa !45
  br label %33

33:                                               ; preds = %23, %12
  %34 = load ptr, ptr %4, align 8, !tbaa !7
  store ptr %34, ptr %2, align 8
  store i32 1, ptr %6, align 4
  br label %35

35:                                               ; preds = %33, %21, %11
  call void @llvm.lifetime.end.p0(i64 8, ptr %5) #6
  call void @llvm.lifetime.end.p0(i64 8, ptr %4) #6
  %36 = load ptr, ptr %2, align 8
  ret ptr %36
}