; Function Attrs: mustprogress nounwind willreturn uwtable
define noalias noundef ptr @N_VNew_Serial(i64 noundef %0) local_unnamed_addr #3 {
  %2 = tail call ptr @N_VNewEmpty_Serial(i64 noundef %0)
  %3 = icmp eq ptr %2, null
  br i1 %3, label %22, label %4

4:                                                ; preds = %1
  %5 = icmp sgt i64 %0, 0
  br i1 %5, label %6, label %22

6:                                                ; preds = %4
  %7 = shl i64 %0, 3
  %8 = tail call noalias ptr @malloc(i64 noundef %7) #17
  %9 = icmp eq ptr %8, null
  %10 = load ptr, ptr %2, align 8, !tbaa !39
  %11 = getelementptr inbounds nuw i8, ptr %10, i64 8
  br i1 %9, label %12, label %20

12:                                               ; preds = %6
  %13 = load i32, ptr %11, align 8, !tbaa !37
  %14 = icmp eq i32 %13, 1
  br i1 %14, label %15, label %N_VDestroy_Serial.exit

15:                                               ; preds = %12
  %16 = getelementptr inbounds nuw i8, ptr %10, i64 16
  %17 = load ptr, ptr %16, align 8, !tbaa !38
  tail call void @free(ptr noundef %17) #18
  br label %N_VDestroy_Serial.exit

N_VDestroy_Serial.exit:                           ; preds = %12, %15
  tail call void @free(ptr noundef nonnull %10) #18
  store ptr null, ptr %2, align 8, !tbaa !39
  %18 = getelementptr inbounds nuw i8, ptr %2, i64 8
  %19 = load ptr, ptr %18, align 8, !tbaa !42
  tail call void @free(ptr noundef %19) #18
  tail call void @free(ptr noundef nonnull %2) #18
  br label %22

20:                                               ; preds = %6
  store i32 1, ptr %11, align 8, !tbaa !37
  %21 = getelementptr inbounds nuw i8, ptr %10, i64 16
  store ptr %8, ptr %21, align 8, !tbaa !38
  br label %22

22:                                               ; preds = %4, %20, %1, %N_VDestroy_Serial.exit
  %.0 = phi ptr [ null, %N_VDestroy_Serial.exit ], [ null, %1 ], [ %2, %20 ], [ %2, %4 ]
  ret ptr %.0
}